; Function Attrs: mustprogress uwtable
define noundef i32 @_ZNK7Imf_3_219TiledRgbaOutputFile9lineOrderEv(ptr nocapture noundef nonnull readonly align 8 dereferenceable(24) %this) local_unnamed_addr #3 align 2 {
entry:
  %_outputFile = getelementptr inbounds i8, ptr %this, i64 8
  %0 = load ptr, ptr %_outputFile, align 8
  %call = tail call noundef nonnull align 8 dereferenceable(49) ptr @_ZNK7Imf_3_215TiledOutputFile6headerEv(ptr noundef nonnull align 8 dereferenceable(25) %0)
  %call2 = tail call noundef nonnull align 4 dereferenceable(4) ptr @_ZNK7Imf_3_26Header9lineOrderEv(ptr noundef nonnull align 8 dereferenceable(49) %call)
  %1 = load i32, ptr %call2, align 4
  ret i32 %1
}